; Function Attrs: mustprogress uwtable
define hidden void @_ZN4cvc58internal3smt9PfManager13getAssertionsERNS1_10AssertionsERSt6vectorINS0_12NodeTemplateILb1EEESaIS7_EE(ptr noundef nonnull readnone align 8 captures(none) dereferenceable(656) %0, ptr noundef nonnull align 8 dereferenceable(288) %1, ptr noundef nonnull align 8 dereferenceable(24) %2) local_unnamed_addr #3 align 2 {
  %4 = tail call noundef nonnull align 8 dereferenceable(74) ptr @_ZNK4cvc58internal3smt10Assertions16getAssertionListEv(ptr noundef nonnull align 8 dereferenceable(288) %1)
  %5 = getelementptr inbounds nuw i8, ptr %4, i64 40
  %6 = load ptr, ptr %5, align 8, !tbaa !322
  %7 = getelementptr inbounds nuw i8, ptr %4, i64 48
  %8 = load ptr, ptr %7, align 8, !tbaa !322
  %.not9 = icmp eq ptr %6, %8
  br i1 %.not9, label %._crit_edge, label %.lr.ph

.lr.ph:                                           ; preds = %3
  %9 = getelementptr inbounds nuw i8, ptr %2, i64 8
  %10 = getelementptr inbounds nuw i8, ptr %2, i64 16
  br label %11

._crit_edge:                                      ; preds = %_ZNSt6vectorIN4cvc58internal12NodeTemplateILb1EEESaIS3_EE9push_backERKS3_.exit, %3
  ret void

11:                                               ; preds = %.lr.ph, %_ZNSt6vectorIN4cvc58internal12NodeTemplateILb1EEESaIS3_EE9push_backERKS3_.exit
  %.sroa.06.010 = phi ptr [ %6, %.lr.ph ], [ %33, %_ZNSt6vectorIN4cvc58internal12NodeTemplateILb1EEESaIS3_EE9push_backERKS3_.exit ]
  %12 = load ptr, ptr %9, align 8, !tbaa !317
  %13 = load ptr, ptr %10, align 8, !tbaa !319
  %.not.i = icmp eq ptr %12, %13
  br i1 %.not.i, label %32, label %14

14:                                               ; preds = %11
  %15 = load ptr, ptr %.sroa.06.010, align 8, !tbaa !11
  store ptr %15, ptr %12, align 8, !tbaa !11
  %16 = load i64, ptr %15, align 8
  %17 = lshr i64 %16, 40
  %18 = trunc nuw nsw i64 %17 to i32
  %19 = and i32 %18, 1048575
  %20 = icmp samesign ult i32 %19, 1048574
  br i1 %20, label %21, label %26, !prof !309

21:                                               ; preds = %14
  %22 = add i64 %16, 1099511627776
  %23 = and i64 %22, 1152920405095219200
  %24 = and i64 %16, -1152920405095219201
  %25 = or disjoint i64 %23, %24
  store i64 %25, ptr %15, align 8
  br label %_ZNSt16allocator_traitsISaIN4cvc58internal12NodeTemplateILb1EEEEE9constructIS3_JRKS3_EEEvRS4_PT_DpOT0_.exit.i

26:                                               ; preds = %14
  %27 = icmp eq i32 %19, 1048574
  br i1 %27, label %28, label %_ZNSt16allocator_traitsISaIN4cvc58internal12NodeTemplateILb1EEEEE9constructIS3_JRKS3_EEEvRS4_PT_DpOT0_.exit.i, !prof !302

28:                                               ; preds = %26
  %29 = or i64 %16, 1152920405095219200
  store i64 %29, ptr %15, align 8
  tail call void @_ZN4cvc58internal4expr9NodeValue20markRefCountMaxedOutEv(ptr noundef nonnull align 8 dereferenceable(24) %15)
  br label %_ZNSt16allocator_traitsISaIN4cvc58internal12NodeTemplateILb1EEEEE9constructIS3_JRKS3_EEEvRS4_PT_DpOT0_.exit.i

_ZNSt16allocator_traitsISaIN4cvc58internal12NodeTemplateILb1EEEEE9constructIS3_JRKS3_EEEvRS4_PT_DpOT0_.exit.i: ; preds = %28, %26, %21
  %30 = load ptr, ptr %9, align 8, !tbaa !317
  %31 = getelementptr inbounds nuw i8, ptr %30, i64 8
  store ptr %31, ptr %9, align 8, !tbaa !317
  br label %_ZNSt6vectorIN4cvc58internal12NodeTemplateILb1EEESaIS3_EE9push_backERKS3_.exit

32:                                               ; preds = %11
  tail call void @_ZNSt6vectorIN4cvc58internal12NodeTemplateILb1EEESaIS3_EE17_M_realloc_insertIJRKS3_EEEvN9__gnu_cxx17__normal_iteratorIPS3_S5_EEDpOT_(ptr noundef nonnull align 8 dereferenceable(24) %2, ptr %12, ptr noundef nonnull align 8 dereferenceable(8) %.sroa.06.010)
  br label %_ZNSt6vectorIN4cvc58internal12NodeTemplateILb1EEESaIS3_EE9push_backERKS3_.exit

_ZNSt6vectorIN4cvc58internal12NodeTemplateILb1EEESaIS3_EE9push_backERKS3_.exit: ; preds = %_ZNSt16allocator_traitsISaIN4cvc58internal12NodeTemplateILb1EEEEE9constructIS3_JRKS3_EEEvRS4_PT_DpOT0_.exit.i, %32
  %33 = getelementptr inbounds nuw i8, ptr %.sroa.06.010, i64 8
  %.not = icmp eq ptr %33, %8
  br i1 %.not, label %._crit_edge, label %11
}